target datalayout = "e-m:e-p270:32:32-p271:32:32-p272:64:64-i64:64-i128:128-f80:128-n8:16:32:64-S128"
target triple = "x86_64-pc-linux-gnu"

; Function Attrs: nounwind uwtable
define i32 @stb_div_eucl(i32 noundef %0, i32 noundef %1) #0 {
  %3 = alloca i32, align 4
  %4 = alloca i32, align 4
  %5 = alloca i32, align 4
  %6 = alloca i32, align 4
  %7 = alloca i32, align 4
  %8 = alloca i32, align 4
  store i32 %0, ptr %4, align 4, !tbaa !3
  store i32 %1, ptr %5, align 4, !tbaa !3
  call void @llvm.lifetime.start.p0(i64 4, ptr %6) #2
  call void @llvm.lifetime.start.p0(i64 4, ptr %7) #2
  %9 = load i32, ptr %4, align 4, !tbaa !3
  %10 = icmp sge i32 %9, 0
  br i1 %10, label %11, label %35

11:                                               ; preds = %2
  %12 = load i32, ptr %5, align 4, !tbaa !3
  %13 = icmp sge i32 %12, 0
  br i1 %13, label %14, label %18

14:                                               ; preds = %11
  %15 = load i32, ptr %4, align 4, !tbaa !3
  %16 = load i32, ptr %5, align 4, !tbaa !3
  %17 = sdiv i32 %15, %16
  store i32 %17, ptr %3, align 4
  store i32 1, ptr %8, align 4
  br label %129

18:                                               ; preds = %11
  %19 = load i32, ptr %5, align 4, !tbaa !3
  %20 = icmp ne i32 %19, -2147483648
  br i1 %20, label %21, label %31

21:                                               ; preds = %18
  %22 = load i32, ptr %4, align 4, !tbaa !3
  %23 = load i32, ptr %5, align 4, !tbaa !3
  %24 = sub nsw i32 0, %23
  %25 = sdiv i32 %22, %24
  %26 = sub nsw i32 0, %25
  store i32 %26, ptr %6, align 4, !tbaa !3
  %27 = load i32, ptr %4, align 4, !tbaa !3
  %28 = load i32, ptr %5, align 4, !tbaa !3
  %29 = sub nsw i32 0, %28
  %30 = srem i32 %27, %29
  store i32 %30, ptr %7, align 4, !tbaa !3
  br label %33

31:                                               ; preds = %18
  store i32 0, ptr %6, align 4, !tbaa !3
  %32 = load i32, ptr %4, align 4, !tbaa !3
  store i32 %32, ptr %7, align 4, !tbaa !3
  br label %33

33:                                               ; preds = %31, %21
  br label %34

34:                                               ; preds = %33
  br label %118

35:                                               ; preds = %2
  %36 = load i32, ptr %4, align 4, !tbaa !3
  %37 = icmp ne i32 %36, -2147483648
  br i1 %37, label %38, label %75

38:                                               ; preds = %35
  %39 = load i32, ptr %5, align 4, !tbaa !3
  %40 = icmp sge i32 %39, 0
  br i1 %40, label %41, label %52

41:                                               ; preds = %38
  %42 = load i32, ptr %4, align 4, !tbaa !3
  %43 = sub nsw i32 0, %42
  %44 = load i32, ptr %5, align 4, !tbaa !3
  %45 = sdiv i32 %43, %44
  %46 = sub nsw i32 0, %45
  store i32 %46, ptr %6, align 4, !tbaa !3
  %47 = load i32, ptr %4, align 4, !tbaa !3
  %48 = sub nsw i32 0, %47
  %49 = load i32, ptr %5, align 4, !tbaa !3
  %50 = srem i32 %48, %49
  %51 = sub nsw i32 0, %50
  store i32 %51, ptr %7, align 4, !tbaa !3
  br label %74

52:                                               ; preds = %38
  %53 = load i32, ptr %5, align 4, !tbaa !3
  %54 = icmp ne i32 %53, -2147483648
  br i1 %54, label %55, label %67

55:                                               ; preds = %52
  %56 = load i32, ptr %4, align 4, !tbaa !3
  %57 = sub nsw i32 0, %56
  %58 = load i32, ptr %5, align 4, !tbaa !3
  %59 = sub nsw i32 0, %58
  %60 = sdiv i32 %57, %59
  store i32 %60, ptr %6, align 4, !tbaa !3
  %61 = load i32, ptr %4, align 4, !tbaa !3
  %62 = sub nsw i32 0, %61
  %63 = load i32, ptr %5, align 4, !tbaa !3
  %64 = sub nsw i32 0, %63
  %65 = srem i32 %62, %64
  %66 = sub nsw i32 0, %65
  store i32 %66, ptr %7, align 4, !tbaa !3
  br label %73

67:                                               ; preds = %52
  store i32 1, ptr %6, align 4, !tbaa !3
  %68 = load i32, ptr %4, align 4, !tbaa !3
  %69 = load i32, ptr %6, align 4, !tbaa !3
  %70 = load i32, ptr %5, align 4, !tbaa !3
  %71 = mul nsw i32 %69, %70
  %72 = sub nsw i32 %68, %71
  store i32 %72, ptr %7, align 4, !tbaa !3
  br label %73

73:                                               ; preds = %67, %55
  br label %74

74:                                               ; preds = %73, %41
  br label %117

75:                                               ; preds = %35
  %76 = load i32, ptr %5, align 4, !tbaa !3
  %77 = icmp sge i32 %76, 0
  br i1 %77, label %78, label %94

78:                                               ; preds = %75
  %79 = load i32, ptr %4, align 4, !tbaa !3
  %80 = load i32, ptr %5, align 4, !tbaa !3
  %81 = add nsw i32 %79, %80
  %82 = sub nsw i32 0, %81
  %83 = load i32, ptr %5, align 4, !tbaa !3
  %84 = sdiv i32 %82, %83
  %85 = sub nsw i32 0, %84
  %86 = sub nsw i32 %85, 1
  store i32 %86, ptr %6, align 4, !tbaa !3
  %87 = load i32, ptr %4, align 4, !tbaa !3
  %88 = load i32, ptr %5, align 4, !tbaa !3
  %89 = add nsw i32 %87, %88
  %90 = sub nsw i32 0, %89
  %91 = load i32, ptr %5, align 4, !tbaa !3
  %92 = srem i32 %90, %91
  %93 = sub nsw i32 0, %92
  store i32 %93, ptr %7, align 4, !tbaa !3
  br label %116

94:                                               ; preds = %75
  %95 = load i32, ptr %5, align 4, !tbaa !3
  %96 = icmp ne i32 %95, -2147483648
  br i1 %96, label %97, label %114

97:                                               ; preds = %94
  %98 = load i32, ptr %4, align 4, !tbaa !3
  %99 = load i32, ptr %5, align 4, !tbaa !3
  %100 = sub nsw i32 %98, %99
  %101 = sub nsw i32 0, %100
  %102 = load i32, ptr %5, align 4, !tbaa !3
  %103 = sub nsw i32 0, %102
  %104 = sdiv i32 %101, %103
  %105 = add nsw i32 %104, 1
  store i32 %105, ptr %6, align 4, !tbaa !3
  %106 = load i32, ptr %4, align 4, !tbaa !3
  %107 = load i32, ptr %5, align 4, !tbaa !3
  %108 = sub nsw i32 %106, %107
  %109 = sub nsw i32 0, %108
  %110 = load i32, ptr %5, align 4, !tbaa !3
  %111 = sub nsw i32 0, %110
  %112 = srem i32 %109, %111
  %113 = sub nsw i32 0, %112
  store i32 %113, ptr %7, align 4, !tbaa !3
  br label %115

114:                                              ; preds = %94
  store i32 1, ptr %6, align 4, !tbaa !3
  store i32 0, ptr %7, align 4, !tbaa !3
  br label %115

115:                                              ; preds = %114, %97
  br label %116

116:                                              ; preds = %115, %78
  br label %117

117:                                              ; preds = %116, %74
  br label %118

118:                                              ; preds = %117, %34
  %119 = load i32, ptr %7, align 4, !tbaa !3
  %120 = icmp sge i32 %119, 0
  br i1 %120, label %121, label %123

121:                                              ; preds = %118
  %122 = load i32, ptr %6, align 4, !tbaa !3
  store i32 %122, ptr %3, align 4
  store i32 1, ptr %8, align 4
  br label %129

123:                                              ; preds = %118
  %124 = load i32, ptr %6, align 4, !tbaa !3
  %125 = load i32, ptr %5, align 4, !tbaa !3
  %126 = icmp sgt i32 %125, 0
  %127 = select i1 %126, i32 -1, i32 1
  %128 = add nsw i32 %124, %127
  store i32 %128, ptr %3, align 4
  store i32 1, ptr %8, align 4
  br label %129

129:                                              ; preds = %123, %121, %14
  call void @llvm.lifetime.end.p0(i64 4, ptr %7) #2
  call void @llvm.lifetime.end.p0(i64 4, ptr %6) #2
  %130 = load i32, ptr %3, align 4
  ret i32 %130
}